target datalayout = "e-m:e-p270:32:32-p271:32:32-p272:64:64-i64:64-i128:128-f80:128-n8:16:32:64-S128"
target triple = "x86_64-pc-linux-gnu"

%struct._internal_exr_filehandle = type { i32 }

@.str.19 = private unnamed_addr constant [28 x i8] c"Invalid file handle pointer\00", align 1
@.str.20 = private unnamed_addr constant [24 x i8] c"Invalid file descriptor\00", align 1
@.str.21 = private unnamed_addr constant [29 x i8] c"Unable to read %lu bytes: %s\00", align 1

; Function Attrs: nounwind uwtable
define internal i64 @default_read_func(ptr noundef %0, ptr noundef %1, ptr noundef %2, i64 noundef %3, i64 noundef %4, ptr noundef %5) #0 {
  %7 = alloca i64, align 8
  %8 = alloca ptr, align 8
  %9 = alloca ptr, align 8
  %10 = alloca ptr, align 8
  %11 = alloca i64, align 8
  %12 = alloca i64, align 8
  %13 = alloca ptr, align 8
  %14 = alloca i64, align 8
  %15 = alloca i64, align 8
  %16 = alloca ptr, align 8
  %17 = alloca i32, align 4
  %18 = alloca ptr, align 8
  %19 = alloca i64, align 8
  %20 = alloca i32, align 4
  store ptr %0, ptr %8, align 8, !tbaa !12
  store ptr %1, ptr %9, align 8, !tbaa !45
  store ptr %2, ptr %10, align 8, !tbaa !45
  store i64 %3, ptr %11, align 8, !tbaa !46
  store i64 %4, ptr %12, align 8, !tbaa !46
  store ptr %5, ptr %13, align 8, !tbaa !45
  call void @llvm.lifetime.start.p0(i64 8, ptr %14) #9
  call void @llvm.lifetime.start.p0(i64 8, ptr %15) #9
  store i64 -1, ptr %15, align 8, !tbaa !46
  call void @llvm.lifetime.start.p0(i64 8, ptr %16) #9
  %21 = load ptr, ptr %9, align 8, !tbaa !45
  store ptr %21, ptr %16, align 8, !tbaa !54
  call void @llvm.lifetime.start.p0(i64 4, ptr %17) #9
  store i32 -1, ptr %17, align 4, !tbaa !10
  call void @llvm.lifetime.start.p0(i64 8, ptr %18) #9
  %22 = load ptr, ptr %10, align 8, !tbaa !45
  store ptr %22, ptr %18, align 8, !tbaa !3
  call void @llvm.lifetime.start.p0(i64 8, ptr %19) #9
  %23 = load i64, ptr %11, align 8, !tbaa !46
  store i64 %23, ptr %19, align 8, !tbaa !46
  %24 = load ptr, ptr %16, align 8, !tbaa !54
  %25 = icmp ne ptr %24, null
  br i1 %25, label %35, label %26

26:                                               ; preds = %6
  %27 = load ptr, ptr %13, align 8, !tbaa !45
  %28 = icmp ne ptr %27, null
  br i1 %28, label %29, label %33

29:                                               ; preds = %26
  %30 = load ptr, ptr %13, align 8, !tbaa !45
  %31 = load ptr, ptr %8, align 8, !tbaa !12
  %32 = call i32 (ptr, i32, ptr, ...) %30(ptr noundef %31, i32 noundef 3, ptr noundef @.str.19)
  br label %33

33:                                               ; preds = %29, %26
  %34 = load i64, ptr %15, align 8, !tbaa !46
  store i64 %34, ptr %7, align 8
  store i32 1, ptr %20, align 4
  br label %107

35:                                               ; preds = %6
  %36 = load ptr, ptr %16, align 8, !tbaa !54
  %37 = getelementptr inbounds nuw %struct._internal_exr_filehandle, ptr %36, i32 0, i32 0
  %38 = load i32, ptr %37, align 4, !tbaa !56
  store i32 %38, ptr %17, align 4, !tbaa !10
  %39 = load i32, ptr %17, align 4, !tbaa !10
  %40 = icmp slt i32 %39, 0
  br i1 %40, label %41, label %50

41:                                               ; preds = %35
  %42 = load ptr, ptr %13, align 8, !tbaa !45
  %43 = icmp ne ptr %42, null
  br i1 %43, label %44, label %48

44:                                               ; preds = %41
  %45 = load ptr, ptr %13, align 8, !tbaa !45
  %46 = load ptr, ptr %8, align 8, !tbaa !12
  %47 = call i32 (ptr, i32, ptr, ...) %45(ptr noundef %46, i32 noundef 3, ptr noundef @.str.20)
  br label %48

48:                                               ; preds = %44, %41
  %49 = load i64, ptr %15, align 8, !tbaa !46
  store i64 %49, ptr %7, align 8
  store i32 1, ptr %20, align 4
  br label %107

50:                                               ; preds = %35
  store i64 0, ptr %15, align 8, !tbaa !46
  br label %51

51:                                               ; preds = %87, %50
  %52 = load i32, ptr %17, align 4, !tbaa !10
  %53 = load ptr, ptr %18, align 8, !tbaa !3
  %54 = load i64, ptr %19, align 8, !tbaa !46
  %55 = load i64, ptr %12, align 8, !tbaa !46
  %56 = call i64 @pread(i32 noundef %52, ptr noundef %53, i64 noundef %54, i64 noundef %55)
  store i64 %56, ptr %14, align 8, !tbaa !46
  %57 = load i64, ptr %14, align 8, !tbaa !46
  %58 = icmp slt i64 %57, 0
  br i1 %58, label %59, label %70

59:                                               ; preds = %51
  %60 = call ptr @__errno_location() #10
  %61 = load i32, ptr %60, align 4, !tbaa !10
  %62 = icmp eq i32 %61, 4
  br i1 %62, label %63, label %64

63:                                               ; preds = %59
  br label %87

64:                                               ; preds = %59
  %65 = call ptr @__errno_location() #10
  %66 = load i32, ptr %65, align 4, !tbaa !10
  %67 = icmp eq i32 %66, 11
  br i1 %67, label %68, label %69

68:                                               ; preds = %64
  br label %87

69:                                               ; preds = %64
  store i64 -1, ptr %15, align 8, !tbaa !46
  br label %91

70:                                               ; preds = %51
  %71 = load i64, ptr %14, align 8, !tbaa !46
  %72 = icmp eq i64 %71, 0
  br i1 %72, label %73, label %74

73:                                               ; preds = %70
  br label %91

74:                                               ; preds = %70
  %75 = load i64, ptr %14, align 8, !tbaa !46
  %76 = load i64, ptr %15, align 8, !tbaa !46
  %77 = add nsw i64 %76, %75
  store i64 %77, ptr %15, align 8, !tbaa !46
  %78 = load i64, ptr %14, align 8, !tbaa !46
  %79 = load ptr, ptr %18, align 8, !tbaa !3
  %80 = getelementptr inbounds i8, ptr %79, i64 %78
  store ptr %80, ptr %18, align 8, !tbaa !3
  %81 = load i64, ptr %14, align 8, !tbaa !46
  %82 = load i64, ptr %19, align 8, !tbaa !46
  %83 = sub i64 %82, %81
  store i64 %83, ptr %19, align 8, !tbaa !46
  %84 = load i64, ptr %14, align 8, !tbaa !46
  %85 = load i64, ptr %12, align 8, !tbaa !46
  %86 = add i64 %85, %84
  store i64 %86, ptr %12, align 8, !tbaa !46
  br label %87

87:                                               ; preds = %74, %68, %63
  %88 = load i64, ptr %15, align 8, !tbaa !46
  %89 = load i64, ptr %11, align 8, !tbaa !46
  %90 = icmp slt i64 %88, %89
  br i1 %90, label %51, label %91, !llvm.loop !128

91:                                               ; preds = %87, %73, %69
  %92 = load i64, ptr %15, align 8, !tbaa !46
  %93 = icmp slt i64 %92, 0
  br i1 %93, label %94, label %105

94:                                               ; preds = %91
  %95 = load ptr, ptr %13, align 8, !tbaa !45
  %96 = icmp ne ptr %95, null
  br i1 %96, label %97, label %105

97:                                               ; preds = %94
  %98 = load ptr, ptr %13, align 8, !tbaa !45
  %99 = load ptr, ptr %8, align 8, !tbaa !12
  %100 = load i64, ptr %11, align 8, !tbaa !46
  %101 = call ptr @__errno_location() #10
  %102 = load i32, ptr %101, align 4, !tbaa !10
  %103 = call ptr @strerror(i32 noundef %102) #9
  %104 = call i32 (ptr, i32, ptr, ...) %98(ptr noundef %99, i32 noundef 10, ptr noundef @.str.21, i64 noundef %100, ptr noundef %103)
  br label %105

105:                                              ; preds = %97, %94, %91
  %106 = load i64, ptr %15, align 8, !tbaa !46
  store i64 %106, ptr %7, align 8
  store i32 1, ptr %20, align 4
  br label %107

107:                                              ; preds = %105, %48, %33
  call void @llvm.lifetime.end.p0(i64 8, ptr %19) #9
  call void @llvm.lifetime.end.p0(i64 8, ptr %18) #9
  call void @llvm.lifetime.end.p0(i64 4, ptr %17) #9
  call void @llvm.lifetime.end.p0(i64 8, ptr %16) #9
  call void @llvm.lifetime.end.p0(i64 8, ptr %15) #9
  call void @llvm.lifetime.end.p0(i64 8, ptr %14) #9
  %108 = load i64, ptr %7, align 8
  ret i64 %108
}