; Function Attrs: nounwind uwtable
define internal range(i64 -1, -9223372036854775808) i64 @default_read_func(ptr noundef %0, ptr noundef readonly %1, ptr noundef captures(none) %2, i64 noundef %3, i64 noundef %4, ptr noundef readonly %5) #0 {
  %.not = icmp eq ptr %1, null
  br i1 %.not, label %7, label %10

7:                                                ; preds = %6
  %.not51 = icmp eq ptr %5, null
  br i1 %.not51, label %38, label %8

8:                                                ; preds = %7
  %9 = tail call i32 (ptr, i32, ptr, ...) %5(ptr noundef %0, i32 noundef 3, ptr noundef nonnull @.str.19) #13
  br label %38

10:                                               ; preds = %6
  %11 = load i32, ptr %1, align 4, !tbaa !45
  %12 = icmp slt i32 %11, 0
  br i1 %12, label %13, label %.preheader

13:                                               ; preds = %10
  %.not52 = icmp eq ptr %5, null
  br i1 %.not52, label %38, label %14

14:                                               ; preds = %13
  %15 = tail call i32 (ptr, i32, ptr, ...) %5(ptr noundef %0, i32 noundef 3, ptr noundef nonnull @.str.20) #13
  br label %38

.preheader:                                       ; preds = %10, %28
  %.042 = phi i64 [ %.143, %28 ], [ %4, %10 ]
  %.040 = phi i64 [ %.141, %28 ], [ 0, %10 ]
  %.037 = phi ptr [ %.138, %28 ], [ %2, %10 ]
  %.0 = phi i64 [ %.1, %28 ], [ %3, %10 ]
  %16 = tail call i64 @pread(i32 noundef %11, ptr noundef %.037, i64 noundef %.0, i64 noundef %.042) #13
  %17 = icmp slt i64 %16, 0
  br i1 %17, label %18, label %21

18:                                               ; preds = %.preheader
  %19 = tail call ptr @__errno_location() #14
  %20 = load i32, ptr %19, align 4, !tbaa !51
  switch i32 %20, label %30 [
    i32 4, label %28
    i32 11, label %28
  ]

21:                                               ; preds = %.preheader
  %22 = icmp eq i64 %16, 0
  br i1 %22, label %30, label %23

23:                                               ; preds = %21
  %24 = add nuw nsw i64 %16, %.040
  %25 = getelementptr inbounds nuw i8, ptr %.037, i64 %16
  %26 = sub i64 %.0, %16
  %27 = add i64 %16, %.042
  br label %28

28:                                               ; preds = %18, %18, %23
  %.143 = phi i64 [ %.042, %18 ], [ %27, %23 ], [ %.042, %18 ]
  %.141 = phi i64 [ %.040, %18 ], [ %24, %23 ], [ %.040, %18 ]
  %.138 = phi ptr [ %.037, %18 ], [ %25, %23 ], [ %.037, %18 ]
  %.1 = phi i64 [ %.0, %18 ], [ %26, %23 ], [ %.0, %18 ]
  %29 = icmp slt i64 %.141, %3
  br i1 %29, label %.preheader, label %30, !llvm.loop !123

30:                                               ; preds = %18, %21, %28
  %.2 = phi i64 [ %.141, %28 ], [ %.040, %21 ], [ -1, %18 ]
  %31 = icmp slt i64 %.2, 0
  %32 = icmp ne ptr %5, null
  %or.cond = and i1 %32, %31
  br i1 %or.cond, label %33, label %38

33:                                               ; preds = %30
  %34 = tail call ptr @__errno_location() #14
  %35 = load i32, ptr %34, align 4, !tbaa !51
  %36 = tail call ptr @strerror(i32 noundef %35) #13
  %37 = tail call i32 (ptr, i32, ptr, ...) %5(ptr noundef %0, i32 noundef 10, ptr noundef nonnull @.str.21, i64 noundef %3, ptr noundef %36) #13
  br label %38

38:                                               ; preds = %30, %33, %13, %14, %7, %8
  %.039 = phi i64 [ -1, %8 ], [ -1, %7 ], [ -1, %14 ], [ -1, %13 ], [ %.2, %33 ], [ %.2, %30 ]
  ret i64 %.039
}